; Function Attrs: mustprogress uwtable
define hidden void @_ZNK7zstring7extractEjj(ptr dead_on_unwind noalias writable sret(%class.zstring) align 8 %0, ptr noundef nonnull readonly align 8 captures(none) dereferenceable(80) %1, i32 noundef %2, i32 noundef %3) local_unnamed_addr #3 align 2 personality ptr @__gxx_personality_v0 {
  %5 = getelementptr inbounds nuw i8, ptr %0, i64 16
  store ptr %5, ptr %0, align 8, !tbaa !13
  %6 = getelementptr inbounds nuw i8, ptr %0, i64 8
  store i32 0, ptr %6, align 8, !tbaa !16
  %7 = getelementptr inbounds nuw i8, ptr %0, i64 12
  store i32 16, ptr %7, align 4, !tbaa !17
  %8 = add i32 %3, %2
  %9 = icmp ult i32 %8, %2
  br i1 %9, label %.loopexit, label %10

10:                                               ; preds = %4
  %11 = getelementptr inbounds nuw i8, ptr %1, i64 8
  %12 = load i32, ptr %11, align 8, !tbaa !16
  %.sroa.speculated = tail call i32 @llvm.umin.i32(i32 %12, i32 %8)
  %13 = icmp slt i32 %2, %.sroa.speculated
  br i1 %13, label %.lr.ph, label %.loopexit

.lr.ph:                                           ; preds = %10, %._crit_edge.i
  %.pre.i = phi ptr [ %.pre.i24, %._crit_edge.i ], [ %5, %10 ]
  %14 = phi i32 [ %36, %._crit_edge.i ], [ 0, %10 ]
  %.023 = phi i32 [ %37, %._crit_edge.i ], [ %2, %10 ]
  %15 = load ptr, ptr %1, align 8, !tbaa !13
  %16 = zext i32 %.023 to i64
  %17 = getelementptr inbounds nuw i32, ptr %15, i64 %16
  %18 = load i32, ptr %7, align 4, !tbaa !17
  %.not.i = icmp ult i32 %14, %18
  br i1 %.not.i, label %._crit_edge.i, label %19

19:                                               ; preds = %.lr.ph
  %20 = shl i32 %18, 1
  %21 = zext i32 %20 to i64
  %22 = shl nuw nsw i64 %21, 2
  %23 = invoke noalias noundef ptr @_ZN6memory8allocateEm(i64 noundef %22)
          to label %.noexc unwind label %38

.noexc:                                           ; preds = %19
  %24 = load i32, ptr %6, align 8, !tbaa !16
  %.not.i.i = icmp eq i32 %24, 0
  %.pre.i.i = load ptr, ptr %0, align 8, !tbaa !13
  br i1 %.not.i.i, label %._crit_edge.i.i, label %.lr.ph.i.i

.lr.ph.i.i:                                       ; preds = %.noexc
  %wide.trip.count.i.i = zext i32 %24 to i64
  br label %27

._crit_edge.i.i:                                  ; preds = %27, %.noexc
  %.not.i.i.i = icmp eq ptr %.pre.i.i, %5
  %25 = icmp eq ptr %.pre.i.i, null
  %or.cond.i.i.i = or i1 %.not.i.i.i, %25
  br i1 %or.cond.i.i.i, label %_ZN6bufferIjLb1ELj16EE6expandEv.exit.i, label %26

26:                                               ; preds = %._crit_edge.i.i
  invoke void @_ZN6memory10deallocateEPv(ptr noundef nonnull %.pre.i.i)
          to label %.noexc19 unwind label %38

.noexc19:                                         ; preds = %26
  %.pre2.pre.i = load i32, ptr %6, align 8, !tbaa !16
  br label %_ZN6bufferIjLb1ELj16EE6expandEv.exit.i

27:                                               ; preds = %27, %.lr.ph.i.i
  %indvars.iv.i.i = phi i64 [ 0, %.lr.ph.i.i ], [ %indvars.iv.next.i.i, %27 ]
  %28 = getelementptr inbounds nuw i32, ptr %23, i64 %indvars.iv.i.i
  %29 = getelementptr inbounds nuw i32, ptr %.pre.i.i, i64 %indvars.iv.i.i
  %30 = load i32, ptr %29, align 4, !tbaa !9
  store i32 %30, ptr %28, align 4, !tbaa !9
  %indvars.iv.next.i.i = add nuw nsw i64 %indvars.iv.i.i, 1
  %exitcond.not.i.i = icmp eq i64 %indvars.iv.next.i.i, %wide.trip.count.i.i
  br i1 %exitcond.not.i.i, label %._crit_edge.i.i, label %27, !llvm.loop !18

_ZN6bufferIjLb1ELj16EE6expandEv.exit.i:           ; preds = %.noexc19, %._crit_edge.i.i
  %.pre2.i = phi i32 [ %24, %._crit_edge.i.i ], [ %.pre2.pre.i, %.noexc19 ]
  store ptr %23, ptr %0, align 8, !tbaa !13
  store i32 %20, ptr %7, align 4, !tbaa !17
  br label %._crit_edge.i

._crit_edge.i:                                    ; preds = %.lr.ph, %_ZN6bufferIjLb1ELj16EE6expandEv.exit.i
  %.pre.i24 = phi ptr [ %23, %_ZN6bufferIjLb1ELj16EE6expandEv.exit.i ], [ %.pre.i, %.lr.ph ]
  %31 = phi i32 [ %.pre2.i, %_ZN6bufferIjLb1ELj16EE6expandEv.exit.i ], [ %14, %.lr.ph ]
  %32 = zext i32 %31 to i64
  %33 = getelementptr inbounds nuw i32, ptr %.pre.i24, i64 %32
  %34 = load i32, ptr %17, align 4, !tbaa !9
  store i32 %34, ptr %33, align 4, !tbaa !9
  %35 = load i32, ptr %6, align 8, !tbaa !16
  %36 = add i32 %35, 1
  store i32 %36, ptr %6, align 8, !tbaa !16
  %37 = add i32 %.023, 1
  %exitcond.not = icmp eq i32 %37, %.sroa.speculated
  br i1 %exitcond.not, label %.loopexit, label %.lr.ph, !llvm.loop !62

38:                                               ; preds = %26, %19
  %39 = landingpad { ptr, i32 }
          cleanup
  tail call void @_ZN7zstringD2Ev(ptr noundef nonnull align 8 dereferenceable(80) %0) #20
  resume { ptr, i32 } %39

.loopexit:                                        ; preds = %._crit_edge.i, %10, %4
  ret void
}